target datalayout = "e-m:e-p270:32:32-p271:32:32-p272:64:64-i64:64-i128:128-f80:128-n8:16:32:64-S128"
target triple = "x86_64-pc-linux-gnu"

%"class.std::__cxx11::basic_string" = type { %"struct.std::__cxx11::basic_string<char>::_Alloc_hider", i64, %union.anon }
%"struct.std::__cxx11::basic_string<char>::_Alloc_hider" = type { ptr }
%union.anon = type { i64, [8 x i8] }
%"class.grpc_core::RefCount" = type { %"struct.std::atomic" }
%"struct.std::atomic" = type { %"struct.std::__atomic_base" }
%"struct.std::__atomic_base" = type { i64 }
%"class.absl::lts_20240722::Status" = type { i64 }
%"class.std::shared_ptr" = type { %"class.std::__shared_ptr" }
%"class.std::__shared_ptr" = type { ptr, %"class.std::__shared_count" }
%"class.std::__shared_count" = type { ptr }
%"class.std::unique_ptr.89" = type { %"struct.std::__uniq_ptr_data.90" }
%"struct.std::__uniq_ptr_data.90" = type { %"class.std::__uniq_ptr_impl.91" }
%"class.std::__uniq_ptr_impl.91" = type { %"class.std::tuple.92" }
%"class.std::tuple.92" = type { %"struct.std::_Tuple_impl.93" }
%"struct.std::_Tuple_impl.93" = type { %"struct.std::_Head_base.96" }
%"struct.std::_Head_base.96" = type { ptr }
%"class.grpc_core::ChannelArgs" = type { %"class.grpc_core::AVL" }
%"class.grpc_core::AVL" = type { %"class.grpc_core::RefCountedPtr.97" }
%"class.grpc_core::RefCountedPtr.97" = type { ptr }
%"class.grpc_core::LoadBalancingPolicy" = type { %"class.grpc_core::InternallyRefCounted", %"class.std::shared_ptr", ptr, %"class.std::unique_ptr.89", %"class.grpc_core::ChannelArgs" }
%"class.grpc_core::InternallyRefCounted" = type { %"class.grpc_core::Orphanable", %"class.grpc_core::RefCount" }
%"class.grpc_core::Orphanable" = type { ptr }
%"struct.grpc_event_engine::experimental::EventEngine::TaskHandle" = type { [2 x i64] }
%"class.grpc_core::(anonymous namespace)::OldPickFirst::SubchannelList" = type { %"class.grpc_core::InternallyRefCounted.161", %"class.grpc_core::RefCountedPtr.162", %"class.grpc_core::ChannelArgs", %"class.std::__cxx11::basic_string", %"class.std::vector.163", i8, i64, i64, %"class.std::optional.168", i64, %"class.absl::lts_20240722::Status" }
%"class.grpc_core::InternallyRefCounted.161" = type { %"class.grpc_core::Orphanable", %"class.grpc_core::RefCount" }
%"class.grpc_core::RefCountedPtr.162" = type { ptr }
%"class.std::vector.163" = type { %"struct.std::_Vector_base.164" }
%"struct.std::_Vector_base.164" = type { %"struct.std::_Vector_base<grpc_core::(anonymous namespace)::OldPickFirst::SubchannelList::SubchannelData, std::allocator<grpc_core::(anonymous namespace)::OldPickFirst::SubchannelList::SubchannelData>>::_Vector_impl" }
%"struct.std::_Vector_base<grpc_core::(anonymous namespace)::OldPickFirst::SubchannelList::SubchannelData, std::allocator<grpc_core::(anonymous namespace)::OldPickFirst::SubchannelList::SubchannelData>>::_Vector_impl" = type { %"struct.std::_Vector_base<grpc_core::(anonymous namespace)::OldPickFirst::SubchannelList::SubchannelData, std::allocator<grpc_core::(anonymous namespace)::OldPickFirst::SubchannelList::SubchannelData>>::_Vector_impl_data" }
%"struct.std::_Vector_base<grpc_core::(anonymous namespace)::OldPickFirst::SubchannelList::SubchannelData, std::allocator<grpc_core::(anonymous namespace)::OldPickFirst::SubchannelList::SubchannelData>>::_Vector_impl_data" = type { ptr, ptr, ptr }
%"class.std::optional.168" = type { %"struct.std::_Optional_base.169" }
%"struct.std::_Optional_base.169" = type { %"struct.std::_Optional_payload.171" }
%"struct.std::_Optional_payload.171" = type { %"struct.std::_Optional_payload_base.base.173", [7 x i8] }
%"struct.std::_Optional_payload_base.base.173" = type <{ %"union.std::_Optional_payload_base<grpc_event_engine::experimental::EventEngine::TaskHandle>::_Storage", i8 }>
%"union.std::_Optional_payload_base<grpc_event_engine::experimental::EventEngine::TaskHandle>::_Storage" = type { %"struct.grpc_event_engine::experimental::EventEngine::TaskHandle" }
%"class.grpc_core::RefCountedPtr.243" = type { ptr }
%"class.grpc_core::(anonymous namespace)::OldPickFirst::SubchannelList::SubchannelData::Watcher" = type { %"class.grpc_core::SubchannelInterface::ConnectivityStateWatcherInterface", %"class.grpc_core::RefCountedPtr.243", i64 }
%"class.grpc_core::SubchannelInterface::ConnectivityStateWatcherInterface" = type { ptr }

; Function Attrs: mustprogress nounwind uwtable
define linkonce_odr noundef ptr @_ZNK9grpc_core19LoadBalancingPolicy18interested_partiesEv(ptr noundef nonnull align 8 dereferenceable(56) %0) #6 comdat align 2 {
  %2 = alloca ptr, align 8
  store ptr %0, ptr %2, align 8, !tbaa !281
  %3 = load ptr, ptr %2, align 8
  %4 = getelementptr inbounds nuw %"class.grpc_core::LoadBalancingPolicy", ptr %3, i32 0, i32 2
  %5 = load ptr, ptr %4, align 8, !tbaa !982
  ret ptr %5
}

; Function Attrs: mustprogress nounwind uwtable
define internal noundef ptr @_ZNK9grpc_core13RefCountedPtrINS_12_GLOBAL__N_112OldPickFirstEEptEv(ptr noundef nonnull align 8 dereferenceable(8) %0) #6 align 2 {
  %2 = alloca ptr, align 8
  store ptr %0, ptr %2, align 8, !tbaa !437
  %3 = load ptr, ptr %2, align 8
  %4 = getelementptr inbounds nuw %"class.grpc_core::RefCountedPtr.162", ptr %3, i32 0, i32 0
  %5 = load ptr, ptr %4, align 8, !tbaa !439
  ret ptr %5
}

; Function Attrs: mustprogress nounwind uwtable
define internal noundef ptr @_ZNK9grpc_core13RefCountedPtrINS_12_GLOBAL__N_112OldPickFirst14SubchannelListEEptEv(ptr noundef nonnull align 8 dereferenceable(8) %0) #6 align 2 {
  %2 = alloca ptr, align 8
  store ptr %0, ptr %2, align 8, !tbaa !772
  %3 = load ptr, ptr %2, align 8
  %4 = getelementptr inbounds nuw %"class.grpc_core::RefCountedPtr.243", ptr %3, i32 0, i32 0
  %5 = load ptr, ptr %4, align 8, !tbaa !776
  ret ptr %5
}

; Function Attrs: mustprogress nounwind uwtable
define internal noundef ptr @_ZN9grpc_core12_GLOBAL__N_112OldPickFirst14SubchannelList14SubchannelData7Watcher18interested_partiesEv(ptr noundef nonnull align 8 dereferenceable(24) %0) unnamed_addr #6 align 2 {
  %2 = alloca ptr, align 8
  store ptr %0, ptr %2, align 8, !tbaa !787
  %3 = load ptr, ptr %2, align 8
  %4 = getelementptr inbounds nuw %"class.grpc_core::(anonymous namespace)::OldPickFirst::SubchannelList::SubchannelData::Watcher", ptr %3, i32 0, i32 1
  %5 = call noundef ptr @_ZNK9grpc_core13RefCountedPtrINS_12_GLOBAL__N_112OldPickFirst14SubchannelListEEptEv(ptr noundef nonnull align 8 dereferenceable(8) %4)
  %6 = getelementptr inbounds nuw %"class.grpc_core::(anonymous namespace)::OldPickFirst::SubchannelList", ptr %5, i32 0, i32 1
  %7 = call noundef ptr @_ZNK9grpc_core13RefCountedPtrINS_12_GLOBAL__N_112OldPickFirstEEptEv(ptr noundef nonnull align 8 dereferenceable(8) %6)
  %8 = call noundef ptr @_ZNK9grpc_core19LoadBalancingPolicy18interested_partiesEv(ptr noundef nonnull align 8 dereferenceable(56) %7)
  ret ptr %8
}