; Function Attrs: mustprogress nofree norecurse nosync nounwind willreturn memory(read, inaccessiblemem: none) uwtable
define internal noundef ptr @_ZN9grpc_core12_GLOBAL__N_112OldPickFirst14SubchannelList14SubchannelData7Watcher18interested_partiesEv(ptr noundef nonnull readonly align 8 captures(none) dereferenceable(24) %0) unnamed_addr #27 align 2 {
  %2 = getelementptr inbounds nuw i8, ptr %0, i64 8
  %.val1 = load ptr, ptr %2, align 8, !tbaa !354
  %3 = getelementptr inbounds nuw i8, ptr %.val1, i64 16
  %.val = load ptr, ptr %3, align 8, !tbaa !226
  %4 = getelementptr inbounds nuw i8, ptr %.val, i64 32
  %5 = load ptr, ptr %4, align 8, !tbaa !428
  ret ptr %5
}